(dp0
S'Parker'
p1
(dp2
S'residue'
p3
(lp4
S'A'
p5
aS'R'
p6
aS'N'
p7
aS'D'
p8
aS'C'
p9
aS'Q'
p10
aS'E'
p11
aS'G'
p12
aS'H'
p13
aS'I'
p14
aS'K'
p15
aS'L'
p16
aS'M'
p17
aS'F'
p18
aS'P'
p19
aS'S'
p20
aS'T'
p21
aS'W'
p22
aS'Y'
p23
aS'V'
p24
aS'X'
p25
asS'default_window'
p26
I7
sS'reference'
p27
S'Parker JM, Guo D, Hodges RS. New hydrophilicity scale derived from high-performance liquid chromatography peptide retention data: correlation of predicted surface residues with antigenicity and X-ray-derived accessible sites. Biochemistry. 1986 Sep 23;25'
p28
sS'title'
p29
S'Parker Hydrophilicity'
p30
sS'n_scale'
p31
I1
sS'score'
p32
(lp33
F2.1
aF4.2
aI7
aI10
aF1.4
aI6
aF7.8
aF5.7
aF2.1
aI-8
aF5.7
aF-9.2
aF-4.2
aF-9.2
aF2.1
aF6.5
aF5.2
aI-10
aF-1.9
aF-3.7
aI0
asS'pubmed'
p34
I2430611
sS'id'
p35
g1
ssS'Karplus-Schulz'
p36
(dp37
g3
(lp38
g5
ag6
ag7
ag8
ag9
ag10
ag11
ag12
ag13
ag14
ag15
ag16
ag17
ag18
ag19
ag20
ag21
ag22
ag23
ag24
ag25
asg26
I7
sg27
S'Karplus PA, Schulz GE. Prediction of Chain Flexibility in Proteins - A tool for the Selection of Peptide Antigens. Naturwissenschafren 1985; 72:212-3.'
p39
sg29
S'Karplus & Schulz Flexibility'
p40
sg31
I3
sg32
(lp41
F-0.1
aF-0.2
aF1.7
aF-0.3
aF-2.1
aF2.9
aF1.2
aF2.3
aF-1.6
aF-1.1
aF1.1
aI-2
aF-2.5
aF-2.9
aF0.2
aI3
aF0.6
aI-3
aF-2.1
aF-1.6
aI0
asg34
I0
sg35
g36
ssS'Emini'
p42
(dp43
g3
(lp44
g5
ag6
ag7
ag8
ag9
ag10
ag11
ag12
ag13
ag14
ag15
ag16
ag17
ag18
ag19
ag20
ag21
ag22
ag23
ag24
ag25
asg26
I6
sg27
S'Emini EA, Hughes JV, Perlow DS, Boger J. Induction of hepatitis A virus-neutralizing antibody by a virus-specific synthetic peptide. J Virol. 1985 Sep;55(3):836-9.'
p45
sg29
S'Emini Surface Accessibility'
p46
sg31
I1
sg32
(lp47
F0.49
aF0.95
aF0.78
aF0.81
aF0.26
aF0.84
aF0.84
aF0.48
aF0.66
aF0.34
aF0.97
aF0.4
aF0.48
aF0.42
aF0.75
aF0.65
aF0.7
aF0.51
aF0.76
aF0.36
aI0
asg34
I2991600
sg35
g42
ssS'Bepipred2'
p48
(dp49
g3
(lp50
sg26
I7
sg27
S'Larsen JE, Lund O, Nielsen M. Improved method for predicting linear B-cell epitopes. Immunome Res. 2006; 2: 2.'
p51
sg29
S'Bepipred Linear Epitope'
p52
sg31
I1
sg32
(lp53
sg34
I16635264
sg35
S'Bepipred'
p54
ssS'Chou-Fasman'
p55
(dp56
g3
(lp57
g5
ag6
ag7
ag8
ag9
ag10
ag11
ag12
ag13
ag14
ag15
ag16
ag17
ag18
ag19
ag20
ag21
ag22
ag23
ag24
ag25
asg26
I7
sg27
S'Chou PY, Fasman GD. Prediction of the secondary structure of proteins from their amino acid sequence. Adv Enzymol Relat Areas Mol Biol. 1978;47:45-148.'
p58
sg29
S'Chou & Fasman Beta-Turn'
p59
sg31
I1
sg32
(lp60
F0.66
aF0.95
aF1.56
aF1.46
aF1.19
aF0.98
aF0.74
aF1.56
aF0.95
aF0.47
aF1.01
aF0.59
aF0.6
aF0.6
aF1.52
aF1.43
aF0.96
aF0.96
aF1.14
aF0.5
aI0
asg34
I364941
sg35
S'Classical'
p61
ssg54
g49
sS'Kolaskar-Tongaonkar'
p62
(dp63
g3
(lp64
g5
ag6
ag7
ag8
ag9
ag10
ag11
ag12
ag13
ag14
ag15
ag16
ag17
ag18
ag19
ag20
ag21
ag22
ag23
ag24
ag25
asg26
I7
sg27
S'Kolaskar AS, Tongaonkar PC. A semi-empirical method for prediction of antigenic determinants on protein antigens. FEBS Lett. 1990 Dec 10;276(1-2):172-4.'
p65
sg29
S'Kolaskar & Tongaonkar Antigenicity'
p66
sg31
I1
sg32
(lp67
F1.064
aF0.873
aF0.776
aF0.866
aF1.412
aF1.015
aF0.851
aF0.874
aF1.105
aF1.152
aF0.93
aF1.25
aF0.826
aF1.091
aF1.064
aF1.012
aF0.909
aF0.893
aF1.161
aF1.383
aI0
asg34
I1702393
sg35
g62
ss.